target datalayout = "e-m:e-p270:32:32-p271:32:32-p272:64:64-i64:64-i128:128-f80:128-n8:16:32:64-S128"
target triple = "x86_64-pc-linux-gnu"

; Function Attrs: mustprogress nounwind uwtable
define noundef zeroext i1 @_Z10IsTextUtf8PKhm(ptr noundef %0, i64 noundef %1) #1 {
  %3 = alloca i1, align 1
  %4 = alloca ptr, align 8
  %5 = alloca i64, align 8
  %6 = alloca i8, align 1
  %7 = alloca i32, align 4
  %8 = alloca i8, align 1
  store ptr %0, ptr %4, align 8
  store i64 %1, ptr %5, align 8
  br label %9

9:                                                ; preds = %63, %2
  %10 = load i64, ptr %5, align 8
  %11 = add i64 %10, -1
  store i64 %11, ptr %5, align 8
  %12 = icmp ugt i64 %10, 0
  br i1 %12, label %13, label %64

13:                                               ; preds = %9
  %14 = load ptr, ptr %4, align 8
  %15 = getelementptr inbounds i8, ptr %14, i32 1
  store ptr %15, ptr %4, align 8
  %16 = load i8, ptr %14, align 1
  store i8 %16, ptr %6, align 1
  store i32 0, ptr %7, align 4
  store i8 -128, ptr %8, align 1
  br label %17

17:                                               ; preds = %33, %13
  %18 = load i8, ptr %8, align 1
  %19 = zext i8 %18 to i32
  %20 = icmp ne i32 %19, 0
  br i1 %20, label %21, label %28

21:                                               ; preds = %17
  %22 = load i8, ptr %6, align 1
  %23 = zext i8 %22 to i32
  %24 = load i8, ptr %8, align 1
  %25 = zext i8 %24 to i32
  %26 = and i32 %23, %25
  %27 = icmp ne i32 %26, 0
  br label %28

28:                                               ; preds = %21, %17
  %29 = phi i1 [ false, %17 ], [ %27, %21 ]
  br i1 %29, label %30, label %38

30:                                               ; preds = %28
  %31 = load i32, ptr %7, align 4
  %32 = add nsw i32 %31, 1
  store i32 %32, ptr %7, align 4
  br label %33

33:                                               ; preds = %30
  %34 = load i8, ptr %8, align 1
  %35 = zext i8 %34 to i32
  %36 = ashr i32 %35, 1
  %37 = trunc i32 %36 to i8
  store i8 %37, ptr %8, align 1
  br label %17, !llvm.loop !12

38:                                               ; preds = %28
  %39 = load i32, ptr %7, align 4
  %40 = icmp eq i32 %39, 1
  br i1 %40, label %44, label %41

41:                                               ; preds = %38
  %42 = load i32, ptr %7, align 4
  %43 = icmp sgt i32 %42, 6
  br i1 %43, label %44, label %45

44:                                               ; preds = %41, %38
  store i1 false, ptr %3, align 1
  br label %65

45:                                               ; preds = %41
  br label %46

46:                                               ; preds = %62, %45
  %47 = load i32, ptr %7, align 4
  %48 = add nsw i32 %47, -1
  store i32 %48, ptr %7, align 4
  %49 = icmp sgt i32 %48, 0
  br i1 %49, label %50, label %63

50:                                               ; preds = %46
  %51 = load i64, ptr %5, align 8
  %52 = add i64 %51, -1
  store i64 %52, ptr %5, align 8
  %53 = icmp ule i64 %51, 0
  br i1 %53, label %61, label %54

54:                                               ; preds = %50
  %55 = load ptr, ptr %4, align 8
  %56 = getelementptr inbounds i8, ptr %55, i32 1
  store ptr %56, ptr %4, align 8
  %57 = load i8, ptr %55, align 1
  %58 = zext i8 %57 to i32
  %59 = and i32 %58, 192
  %60 = icmp ne i32 %59, 128
  br i1 %60, label %61, label %62

61:                                               ; preds = %54, %50
  store i1 false, ptr %3, align 1
  br label %65

62:                                               ; preds = %54
  br label %46, !llvm.loop !13

63:                                               ; preds = %46
  br label %9, !llvm.loop !14

64:                                               ; preds = %9
  store i1 true, ptr %3, align 1
  br label %65

65:                                               ; preds = %64, %61, %44
  %66 = load i1, ptr %3, align 1
  ret i1 %66
}