; Function Attrs: mustprogress nofree norecurse nosync nounwind willreturn memory(argmem: read) uwtable
define noundef zeroext i1 @_Z10IsTextUtf8PKhm(ptr noundef readonly captures(none) %0, i64 noundef %1) local_unnamed_addr #5 {
  %.not29 = icmp eq i64 %1, 0
  br i1 %.not29, label %.loopexit22, label %.lr.ph34

.loopexit:                                        ; preds = %.preheader
  br i1 %16, label %.loopexit22, label %.lr.ph34, !llvm.loop !12

.lr.ph34:                                         ; preds = %2, %.loopexit
  %.01531 = phi i64 [ %.116, %.loopexit ], [ %1, %2 ]
  %.01730 = phi ptr [ %.118, %.loopexit ], [ %0, %2 ]
  %3 = load i8, ptr %.01730, align 1
  %4 = zext i8 %3 to i32
  %.not38 = icmp sgt i8 %3, -1
  br i1 %.not38, label %._crit_edge, label %.lr.ph

.lr.ph:                                           ; preds = %.lr.ph34, %.lr.ph
  %5 = phi i32 [ %7, %.lr.ph ], [ 128, %.lr.ph34 ]
  %.01328 = phi i32 [ %6, %.lr.ph ], [ 0, %.lr.ph34 ]
  %6 = add nuw nsw i32 %.01328, 1
  %7 = lshr i32 %5, 1
  %8 = icmp samesign ugt i32 %5, 1
  %9 = and i32 %7, %4
  %10 = icmp ne i32 %9, 0
  %11 = and i1 %8, %10
  br i1 %11, label %.lr.ph, label %._crit_edge, !llvm.loop !13

._crit_edge:                                      ; preds = %.lr.ph, %.lr.ph34
  %.013.lcssa = phi i32 [ 0, %.lr.ph34 ], [ %6, %.lr.ph ]
  %12 = icmp ne i32 %.013.lcssa, 1
  %13 = icmp ult i32 %.013.lcssa, 7
  %or.cond.not = and i1 %12, %13
  br i1 %or.cond.not, label %.preheader, label %.loopexit22

.preheader:                                       ; preds = %._crit_edge, %18
  %.017.pn = phi ptr [ %.118, %18 ], [ %.01730, %._crit_edge ]
  %.116.in = phi i64 [ %.116, %18 ], [ %.01531, %._crit_edge ]
  %.1 = phi i32 [ %14, %18 ], [ %.013.lcssa, %._crit_edge ]
  %.118 = getelementptr inbounds nuw i8, ptr %.017.pn, i64 1
  %.116 = add i64 %.116.in, -1
  %14 = add nsw i32 %.1, -1
  %15 = icmp sgt i32 %.1, 1
  %16 = icmp eq i64 %.116, 0
  br i1 %15, label %17, label %.loopexit

17:                                               ; preds = %.preheader
  br i1 %16, label %.loopexit22, label %18

18:                                               ; preds = %17
  %19 = load i8, ptr %.118, align 1
  %.not21 = icmp slt i8 %19, -64
  br i1 %.not21, label %.preheader, label %.loopexit22, !llvm.loop !14

.loopexit22:                                      ; preds = %._crit_edge, %.loopexit, %17, %18, %2
  %.not27 = phi i1 [ true, %2 ], [ false, %18 ], [ false, %17 ], [ %or.cond.not, %.loopexit ], [ %or.cond.not, %._crit_edge ]
  ret i1 %.not27
}